target datalayout = "e-m:e-p270:32:32-p271:32:32-p272:64:64-i64:64-i128:128-f80:128-n8:16:32:64-S128"
target triple = "x86_64-pc-linux-gnu"

%class.LogTagSet = type { ptr, i64, [5 x i32], [4 x i8], %class.LogOutputList, %class.LogDecorators, ptr }
%class.LogOutputList = type <{ [6 x ptr], i32, [4 x i8] }>
%class.LogDecorators = type { i32 }
%"class.metaspace::VirtualSpaceNode" = type { ptr, %class.ReservedSpace, i8, ptr, i64, i64, %"class.metaspace::CommitMask", %"class.metaspace::RootChunkAreaLUT", ptr, ptr, ptr }
%class.ReservedSpace = type <{ ptr, i64, i64, i64, i64, i8, [3 x i8], i32, i8, [7 x i8] }>
%"class.metaspace::CommitMask" = type { %class.CHeapBitMap.base, ptr, i64, i64 }
%class.CHeapBitMap.base = type <{ %class.GrowableBitMap, i8 }>
%class.GrowableBitMap = type { %class.BitMap }
%class.BitMap = type { ptr, i64 }
%"class.metaspace::RootChunkAreaLUT" = type { ptr, i32, ptr }
%"class.metaspace::CommitLimiter" = type { %"class.metaspace::AbstractCounter", i64 }
%"class.metaspace::AbstractCounter" = type { i64 }

@.str.15 = private unnamed_addr constant [45 x i8] c"VsListNode @0x%016lx base 0x%016lx : : dies.\00", align 1
@_ZN16LogTagSetMappingILN6LogTag4typeE84ELS1_0ELS1_0ELS1_0ELS1_0ELS1_0EE7_tagsetE = linkonce_odr hidden global %class.LogTagSet zeroinitializer, comdat, align 8
@_ZN9metaspace13InternalStats19_num_vsnodes_deathsE = external global i64, align 8

; Function Attrs: mustprogress nounwind uwtable
define linkonce_odr hidden noundef zeroext i1 @_ZNK13LogOutputList8is_levelEN8LogLevel4typeE(ptr noundef nonnull align 8 dereferenceable(52) %0, i32 noundef %1) #1 comdat align 2 {
  %3 = alloca ptr, align 8
  %4 = alloca i32, align 4
  store ptr %0, ptr %3, align 8
  store i32 %1, ptr %4, align 4
  %5 = load ptr, ptr %3, align 8
  %6 = getelementptr inbounds %class.LogOutputList, ptr %5, i32 0, i32 0
  %7 = load i32, ptr %4, align 4
  %8 = zext i32 %7 to i64
  %9 = getelementptr inbounds [6 x ptr], ptr %6, i64 0, i64 %8
  %10 = load volatile ptr, ptr %9, align 8
  %11 = icmp ne ptr %10, null
  ret i1 %11
}

; Function Attrs: mustprogress nounwind uwtable
define linkonce_odr hidden noundef i64 @_ZNK9metaspace10CommitMask18get_committed_sizeEv(ptr noundef nonnull align 8 dereferenceable(48) %0) #1 comdat align 2 {
  %2 = alloca ptr, align 8
  store ptr %0, ptr %2, align 8
  %3 = load ptr, ptr %2, align 8
  %4 = call noundef i64 @_ZNK6BitMap14count_one_bitsEv(ptr noundef nonnull align 8 dereferenceable(16) %3)
  %5 = getelementptr inbounds %"class.metaspace::CommitMask", ptr %3, i32 0, i32 3
  %6 = load i64, ptr %5, align 8
  %7 = mul i64 %4, %6
  ret i64 %7
}

; Function Attrs: mustprogress nounwind uwtable
define linkonce_odr hidden noundef zeroext i1 @_ZNK9LogTagSet8is_levelEN8LogLevel4typeE(ptr noundef nonnull align 8 dereferenceable(112) %0, i32 noundef %1) #1 comdat align 2 {
  %3 = alloca ptr, align 8
  %4 = alloca i32, align 4
  store ptr %0, ptr %3, align 8
  store i32 %1, ptr %4, align 4
  %5 = load ptr, ptr %3, align 8
  %6 = getelementptr inbounds %class.LogTagSet, ptr %5, i32 0, i32 4
  %7 = load i32, ptr %4, align 4
  %8 = call noundef zeroext i1 @_ZNK13LogOutputList8is_levelEN8LogLevel4typeE(ptr noundef nonnull align 8 dereferenceable(52) %6, i32 noundef %7)
  ret i1 %8
}

; Function Attrs: mustprogress nounwind uwtable
define linkonce_odr hidden noundef nonnull align 8 dereferenceable(112) ptr @_ZN16LogTagSetMappingILN6LogTag4typeE84ELS1_0ELS1_0ELS1_0ELS1_0ELS1_0EE6tagsetEv() #1 comdat align 2 {
  ret ptr @_ZN16LogTagSetMappingILN6LogTag4typeE84ELS1_0ELS1_0ELS1_0ELS1_0ELS1_0EE7_tagsetE
}

; Function Attrs: mustprogress nounwind uwtable
define linkonce_odr hidden void @_ZN9metaspace10CommitMaskD2Ev(ptr noundef nonnull align 8 dereferenceable(48) %0) unnamed_addr #1 comdat align 2 {
  %2 = alloca ptr, align 8
  store ptr %0, ptr %2, align 8
  %3 = load ptr, ptr %2, align 8
  call void @_ZN11CHeapBitMapD2Ev(ptr noundef nonnull align 8 dereferenceable(17) %3) #8
  ret void
}

; Function Attrs: mustprogress nounwind uwtable
define linkonce_odr hidden void @_ZN9metaspace13InternalStats22inc_num_vsnodes_deathsEv() #1 comdat align 2 {
  %1 = load i64, ptr @_ZN9metaspace13InternalStats19_num_vsnodes_deathsE, align 8
  %2 = add i64 %1, 1
  store i64 %2, ptr @_ZN9metaspace13InternalStats19_num_vsnodes_deathsE, align 8
  ret void
}

; Function Attrs: mustprogress nounwind uwtable
define linkonce_odr hidden void @_ZN9metaspace13CommitLimiter18decrease_committedEm(ptr noundef nonnull align 8 dereferenceable(16) %0, i64 noundef %1) #1 comdat align 2 {
  %3 = alloca ptr, align 8
  %4 = alloca i64, align 8
  store ptr %0, ptr %3, align 8
  store i64 %1, ptr %4, align 8
  %5 = load ptr, ptr %3, align 8
  %6 = getelementptr inbounds %"class.metaspace::CommitLimiter", ptr %5, i32 0, i32 0
  %7 = load i64, ptr %4, align 8
  call void @_ZN9metaspace15AbstractCounterImE12decrement_byEm(ptr noundef nonnull align 8 dereferenceable(8) %6, i64 noundef %7)
  ret void
}

; Function Attrs: mustprogress nounwind uwtable
define linkonce_odr hidden void @_ZN9metaspace15AbstractCounterImE12decrement_byEm(ptr noundef nonnull align 8 dereferenceable(8) %0, i64 noundef %1) #1 comdat align 2 {
  %3 = alloca ptr, align 8
  %4 = alloca i64, align 8
  store ptr %0, ptr %3, align 8
  store i64 %1, ptr %4, align 8
  %5 = load ptr, ptr %3, align 8
  %6 = load i64, ptr %4, align 8
  %7 = getelementptr inbounds %"class.metaspace::AbstractCounter", ptr %5, i32 0, i32 0
  %8 = load i64, ptr %7, align 8
  %9 = sub i64 %8, %6
  store i64 %9, ptr %7, align 8
  ret void
}

; Function Attrs: mustprogress nounwind uwtable
define hidden noundef i64 @_ZNK9metaspace16VirtualSpaceNode15committed_wordsEv(ptr noundef nonnull align 8 dereferenceable(192) %0) #1 align 2 {
  %2 = alloca ptr, align 8
  store ptr %0, ptr %2, align 8
  %3 = load ptr, ptr %2, align 8
  %4 = getelementptr inbounds %"class.metaspace::VirtualSpaceNode", ptr %3, i32 0, i32 6
  %5 = call noundef i64 @_ZNK9metaspace10CommitMask18get_committed_sizeEv(ptr noundef nonnull align 8 dereferenceable(48) %4)
  ret i64 %5
}

; Function Attrs: mustprogress nounwind uwtable
define linkonce_odr hidden noundef i64 @_Z3p2iPVKv(ptr noundef %0) #1 comdat {
  %2 = alloca ptr, align 8
  store ptr %0, ptr %2, align 8
  %3 = load ptr, ptr %2, align 8
  %4 = ptrtoint ptr %3 to i64
  ret i64 %4
}

; Function Attrs: mustprogress nounwind uwtable
define linkonce_odr hidden noundef zeroext i1 @_ZN7LogImplILN6LogTag4typeE84ELS1_0ELS1_0ELS1_0ELS1_0ELS1_0EE8is_levelEN8LogLevel4typeE(i32 noundef %0) #1 comdat align 2 {
  %2 = alloca i32, align 4
  store i32 %0, ptr %2, align 4
  %3 = call noundef nonnull align 8 dereferenceable(112) ptr @_ZN16LogTagSetMappingILN6LogTag4typeE84ELS1_0ELS1_0ELS1_0ELS1_0ELS1_0EE6tagsetEv()
  %4 = load i32, ptr %2, align 4
  %5 = call noundef zeroext i1 @_ZNK9LogTagSet8is_levelEN8LogLevel4typeE(ptr noundef nonnull align 8 dereferenceable(112) %3, i32 noundef %4)
  ret i1 %5
}

; Function Attrs: mustprogress nounwind uwtable
define hidden void @_ZN9metaspace16VirtualSpaceNodeD2Ev(ptr noundef nonnull align 8 dereferenceable(192) %0) unnamed_addr #1 align 2 {
  %2 = alloca ptr, align 8
  %3 = alloca i64, align 8
  store ptr %0, ptr %2, align 8
  %4 = load ptr, ptr %2, align 8
  br label %5

5:                                                ; preds = %1
  br label %6

6:                                                ; preds = %5
  br label %7

7:                                                ; preds = %6
  br label %8

8:                                                ; preds = %7
  br label %9

9:                                                ; preds = %8
  br label %10

10:                                               ; preds = %9
  %11 = call noundef zeroext i1 @_ZN7LogImplILN6LogTag4typeE84ELS1_0ELS1_0ELS1_0ELS1_0ELS1_0EE8is_levelEN8LogLevel4typeE(i32 noundef 2)
  br i1 %11, label %13, label %12

12:                                               ; preds = %10
  br label %18

13:                                               ; preds = %10
  %14 = call noundef i64 @_Z3p2iPVKv(ptr noundef %4)
  %15 = getelementptr inbounds %"class.metaspace::VirtualSpaceNode", ptr %4, i32 0, i32 3
  %16 = load ptr, ptr %15, align 8
  %17 = call noundef i64 @_Z3p2iPVKv(ptr noundef %16)
  call void (ptr, ...) @_ZN7LogImplILN6LogTag4typeE84ELS1_0ELS1_0ELS1_0ELS1_0ELS1_0EE5writeILN8LogLevel4typeE2EEEvPKcz(ptr noundef @.str.15, i64 noundef %14, i64 noundef %17)
  br label %18

18:                                               ; preds = %13, %12
  %19 = getelementptr inbounds %"class.metaspace::VirtualSpaceNode", ptr %4, i32 0, i32 2
  %20 = load i8, ptr %19, align 8
  %21 = trunc i8 %20 to i1
  br i1 %21, label %22, label %24

22:                                               ; preds = %18
  %23 = getelementptr inbounds %"class.metaspace::VirtualSpaceNode", ptr %4, i32 0, i32 1
  call void @_ZN13ReservedSpace7releaseEv(ptr noundef nonnull align 8 dereferenceable(49) %23)
  br label %24

24:                                               ; preds = %22, %18
  %25 = call noundef i64 @_ZNK9metaspace16VirtualSpaceNode15committed_wordsEv(ptr noundef nonnull align 8 dereferenceable(192) %4)
  store i64 %25, ptr %3, align 8
  %26 = getelementptr inbounds %"class.metaspace::VirtualSpaceNode", ptr %4, i32 0, i32 10
  %27 = load ptr, ptr %26, align 8
  %28 = load i64, ptr %3, align 8
  call void @_ZN9metaspace15AbstractCounterImE12decrement_byEm(ptr noundef nonnull align 8 dereferenceable(8) %27, i64 noundef %28)
  %29 = getelementptr inbounds %"class.metaspace::VirtualSpaceNode", ptr %4, i32 0, i32 9
  %30 = load ptr, ptr %29, align 8
  %31 = getelementptr inbounds %"class.metaspace::VirtualSpaceNode", ptr %4, i32 0, i32 4
  %32 = load i64, ptr %31, align 8
  call void @_ZN9metaspace15AbstractCounterImE12decrement_byEm(ptr noundef nonnull align 8 dereferenceable(8) %30, i64 noundef %32)
  %33 = getelementptr inbounds %"class.metaspace::VirtualSpaceNode", ptr %4, i32 0, i32 8
  %34 = load ptr, ptr %33, align 8
  %35 = load i64, ptr %3, align 8
  call void @_ZN9metaspace13CommitLimiter18decrease_committedEm(ptr noundef nonnull align 8 dereferenceable(16) %34, i64 noundef %35)
  call void @_ZN9metaspace13InternalStats22inc_num_vsnodes_deathsEv()
  %36 = getelementptr inbounds %"class.metaspace::VirtualSpaceNode", ptr %4, i32 0, i32 7
  call void @_ZN9metaspace16RootChunkAreaLUTD1Ev(ptr noundef nonnull align 8 dereferenceable(24) %36) #8
  %37 = getelementptr inbounds %"class.metaspace::VirtualSpaceNode", ptr %4, i32 0, i32 6
  call void @_ZN9metaspace10CommitMaskD2Ev(ptr noundef nonnull align 8 dereferenceable(48) %37) #8
  ret void
}