; Function Attrs: mustprogress nounwind uwtable
define hidden void @_ZN9metaspace16VirtualSpaceNodeD2Ev(ptr noundef nonnull align 8 dereferenceable(192) %0) unnamed_addr #0 align 2 {
  %2 = load volatile ptr, ptr getelementptr inbounds (i8, ptr @_ZN16LogTagSetMappingILN6LogTag4typeE84ELS1_0ELS1_0ELS1_0ELS1_0ELS1_0EE7_tagsetE, i64 56), align 8
  %.not = icmp eq ptr %2, null
  br i1 %.not, label %8, label %3

3:                                                ; preds = %1
  %4 = ptrtoint ptr %0 to i64
  %5 = getelementptr inbounds i8, ptr %0, i64 72
  %6 = load ptr, ptr %5, align 8
  %7 = ptrtoint ptr %6 to i64
  tail call void (ptr, ...) @_ZN7LogImplILN6LogTag4typeE84ELS1_0ELS1_0ELS1_0ELS1_0ELS1_0EE5writeILN8LogLevel4typeE2EEEvPKcz(ptr noundef nonnull @.str.15, i64 noundef %4, i64 noundef %7)
  br label %8

8:                                                ; preds = %1, %3
  %9 = getelementptr inbounds i8, ptr %0, i64 64
  %10 = load i8, ptr %9, align 8
  %11 = trunc i8 %10 to i1
  br i1 %11, label %12, label %14

12:                                               ; preds = %8
  %13 = getelementptr inbounds i8, ptr %0, i64 8
  tail call void @_ZN13ReservedSpace7releaseEv(ptr noundef nonnull align 8 dereferenceable(49) %13) #8
  br label %14

14:                                               ; preds = %12, %8
  %15 = getelementptr inbounds i8, ptr %0, i64 96
  %16 = tail call noundef i64 @_ZNK6BitMap14count_one_bitsEv(ptr noundef nonnull align 8 dereferenceable(16) %15) #8
  %17 = getelementptr inbounds i8, ptr %0, i64 136
  %18 = load i64, ptr %17, align 8
  %19 = mul i64 %18, %16
  %20 = getelementptr inbounds i8, ptr %0, i64 184
  %21 = load ptr, ptr %20, align 8
  %22 = load i64, ptr %21, align 8
  %23 = sub i64 %22, %19
  store i64 %23, ptr %21, align 8
  %24 = getelementptr inbounds i8, ptr %0, i64 176
  %25 = load ptr, ptr %24, align 8
  %26 = getelementptr inbounds i8, ptr %0, i64 80
  %27 = load i64, ptr %26, align 8
  %28 = load i64, ptr %25, align 8
  %29 = sub i64 %28, %27
  store i64 %29, ptr %25, align 8
  %30 = getelementptr inbounds i8, ptr %0, i64 168
  %31 = load ptr, ptr %30, align 8
  %32 = load i64, ptr %31, align 8
  %33 = sub i64 %32, %19
  store i64 %33, ptr %31, align 8
  %34 = load i64, ptr @_ZN9metaspace13InternalStats19_num_vsnodes_deathsE, align 8
  %35 = add i64 %34, 1
  store i64 %35, ptr @_ZN9metaspace13InternalStats19_num_vsnodes_deathsE, align 8
  %36 = getelementptr inbounds i8, ptr %0, i64 144
  tail call void @_ZN9metaspace16RootChunkAreaLUTD1Ev(ptr noundef nonnull align 8 dereferenceable(24) %36) #8
  tail call void @_ZN11CHeapBitMapD2Ev(ptr noundef nonnull align 8 dereferenceable(17) %15) #8
  ret void
}